target datalayout = "e-m:e-p270:32:32-p271:32:32-p272:64:64-i64:64-i128:128-f80:128-n8:16:32:64-S128"
target triple = "x86_64-unknown-linux-gnu"

%"class.proxygen::HeaderTable" = type { ptr, i32, i32, %"class.std::vector", i32, i32, i32, i8, %"class.folly::F14FastMap" }
%"class.std::vector" = type { %"struct.std::_Vector_base" }
%"struct.std::_Vector_base" = type { %"struct.std::_Vector_base<proxygen::HPACKHeader, std::allocator<proxygen::HPACKHeader>>::_Vector_impl" }
%"struct.std::_Vector_base<proxygen::HPACKHeader, std::allocator<proxygen::HPACKHeader>>::_Vector_impl" = type { %"struct.std::_Vector_base<proxygen::HPACKHeader, std::allocator<proxygen::HPACKHeader>>::_Vector_impl_data" }
%"struct.std::_Vector_base<proxygen::HPACKHeader, std::allocator<proxygen::HPACKHeader>>::_Vector_impl_data" = type { ptr, ptr, ptr }
%"class.folly::F14FastMap" = type { %"class.folly::f14::detail::F14VectorMapImpl" }
%"class.folly::f14::detail::F14VectorMapImpl" = type { %"class.folly::f14::detail::F14BasicMap" }
%"class.folly::f14::detail::F14BasicMap" = type { %"class.folly::f14::detail::F14Table" }
%"class.folly::f14::detail::F14Table" = type { %"class.folly::f14::detail::VectorContainerPolicy", ptr, %"struct.folly::f14::detail::SizeAndChunkShiftAndPackedBegin" }
%"class.folly::f14::detail::VectorContainerPolicy" = type { ptr }
%"struct.folly::f14::detail::SizeAndChunkShiftAndPackedBegin" = type { %"struct.folly::f14::detail::PackedSizeAndChunkShift" }
%"struct.folly::f14::detail::PackedSizeAndChunkShift" = type { i64 }

; Function Attrs: mustprogress uwtable
define noundef i32 @_ZN8proxygen11HeaderTable5evictEjj(ptr noundef nonnull align 8 dereferenceable(80) %this, i32 noundef %needed, i32 noundef %desiredCapacity) unnamed_addr #4 align 2 {
entry:
  %this.addr = alloca ptr, align 8
  %needed.addr = alloca i32, align 4
  %desiredCapacity.addr = alloca i32, align 4
  %previousSize = alloca i32, align 4
  store ptr %this, ptr %this.addr, align 8
  store i32 %needed, ptr %needed.addr, align 4
  store i32 %desiredCapacity, ptr %desiredCapacity.addr, align 4
  %this1 = load ptr, ptr %this.addr, align 8
  %size_ = getelementptr inbounds %"class.proxygen::HeaderTable", ptr %this1, i32 0, i32 4
  %0 = load i32, ptr %size_, align 8
  store i32 %0, ptr %previousSize, align 4
  br label %while.cond

while.cond:                                       ; preds = %while.body, %entry
  %size_2 = getelementptr inbounds %"class.proxygen::HeaderTable", ptr %this1, i32 0, i32 4
  %1 = load i32, ptr %size_2, align 8
  %cmp = icmp ugt i32 %1, 0
  br i1 %cmp, label %land.rhs, label %land.end

land.rhs:                                         ; preds = %while.cond
  %bytes_ = getelementptr inbounds %"class.proxygen::HeaderTable", ptr %this1, i32 0, i32 2
  %2 = load i32, ptr %bytes_, align 4
  %3 = load i32, ptr %needed.addr, align 4
  %add = add i32 %2, %3
  %4 = load i32, ptr %desiredCapacity.addr, align 4
  %cmp3 = icmp ugt i32 %add, %4
  br label %land.end

land.end:                                         ; preds = %land.rhs, %while.cond
  %5 = phi i1 [ false, %while.cond ], [ %cmp3, %land.rhs ]
  br i1 %5, label %while.body, label %while.end

while.body:                                       ; preds = %land.end
  %vtable = load ptr, ptr %this1, align 8
  %vfn = getelementptr inbounds ptr, ptr %vtable, i64 7
  %6 = load ptr, ptr %vfn, align 8
  %call = call noundef i32 %6(ptr noundef nonnull align 8 dereferenceable(80) %this1)
  br label %while.cond, !llvm.loop !16

while.end:                                        ; preds = %land.end
  %7 = load i32, ptr %previousSize, align 4
  %size_4 = getelementptr inbounds %"class.proxygen::HeaderTable", ptr %this1, i32 0, i32 4
  %8 = load i32, ptr %size_4, align 8
  %sub = sub i32 %7, %8
  ret i32 %sub
}