; Function Attrs: mustprogress uwtable
define noundef i32 @_ZN8proxygen11HeaderTable5evictEjj(ptr noundef nonnull align 8 dereferenceable(80) %this, i32 noundef %needed, i32 noundef %desiredCapacity) unnamed_addr #4 align 2 {
entry:
  %size_ = getelementptr inbounds i8, ptr %this, i64 40
  %0 = load i32, ptr %size_, align 8
  %bytes_ = getelementptr inbounds i8, ptr %this, i64 12
  %cmp.not1 = icmp eq i32 %0, 0
  br i1 %cmp.not1, label %while.end, label %land.rhs.preheader

land.rhs.preheader:                               ; preds = %entry
  %1 = load i32, ptr %bytes_, align 4
  %add3 = add i32 %1, %needed
  %cmp34 = icmp ugt i32 %add3, %desiredCapacity
  br i1 %cmp34, label %while.body, label %while.end

land.rhs:                                         ; preds = %while.body
  %2 = load i32, ptr %bytes_, align 4
  %add = add i32 %2, %needed
  %cmp3 = icmp ugt i32 %add, %desiredCapacity
  br i1 %cmp3, label %while.body, label %while.end, !llvm.loop !31

while.body:                                       ; preds = %land.rhs.preheader, %land.rhs
  %vtable = load ptr, ptr %this, align 8
  %vfn = getelementptr inbounds i8, ptr %vtable, i64 56
  %3 = load ptr, ptr %vfn, align 8
  %call = tail call noundef i32 %3(ptr noundef nonnull align 8 dereferenceable(80) %this)
  %.pr = load i32, ptr %size_, align 8
  %cmp.not = icmp eq i32 %.pr, 0
  br i1 %cmp.not, label %while.end, label %land.rhs, !llvm.loop !31

while.end:                                        ; preds = %while.body, %land.rhs, %land.rhs.preheader, %entry
  %.lcssa = phi i32 [ 0, %entry ], [ %0, %land.rhs.preheader ], [ %.pr, %land.rhs ], [ 0, %while.body ]
  %sub = sub i32 %0, %.lcssa
  ret i32 %sub
}